(dp0
S'AA'
p1
F0.0
sS'AC'
p2
F0.0
sS'GT'
p3
F0.016129031999999998
sS'AG'
p4
F0.25925925899999996
sS'CC'
p5
F0.0
sS'CA'
p6
F0.0
sS'CG'
p7
F0.107142857
sS'TT'
p8
F0.0
sS'GG'
p9
F1.0
sS'GC'
p10
F0.022222222000000003
sS'AT'
p11
F0.0
sS'GA'
p12
F0.06944444400000001
sS'TG'
p13
F0.038961038999999996
sS'TA'
p14
F0.0
sS'TC'
p15
F0.0
sS'CT'
p16
F0.0
s.